target datalayout = "e-m:e-p270:32:32-p271:32:32-p272:64:64-i64:64-i128:128-f80:128-n8:16:32:64-S128"
target triple = "x86_64-pc-linux-gnu"

%struct.lua_State = type { ptr, i8, i8, i8, i8, i16, %union.StkIdRel, ptr, ptr, %union.StkIdRel, %union.StkIdRel, ptr, %union.StkIdRel, ptr, ptr, ptr, %struct.CallInfo, ptr, i64, i32, i32, i32, i32, i32, %struct.anon.2 }
%union.StkIdRel = type { ptr }
%struct.CallInfo = type { %union.StkIdRel, %union.StkIdRel, ptr, ptr, %union.anon, %union.anon.1, i32 }
%union.anon = type { %struct.anon.0 }
%struct.anon.0 = type { ptr, i64, i64 }
%union.anon.1 = type { i32 }
%struct.anon.2 = type { i32, i32 }

; Function Attrs: nounwind uwtable
define internal void @freeCI(ptr noundef %0) #0 {
  %2 = alloca ptr, align 8
  %3 = alloca ptr, align 8
  %4 = alloca ptr, align 8
  store ptr %0, ptr %2, align 8, !tbaa !22
  call void @llvm.lifetime.start.p0(i64 8, ptr %3) #6
  %5 = load ptr, ptr %2, align 8, !tbaa !22
  %6 = getelementptr inbounds nuw %struct.lua_State, ptr %5, i32 0, i32 8
  %7 = load ptr, ptr %6, align 8, !tbaa !25
  store ptr %7, ptr %3, align 8, !tbaa !23
  call void @llvm.lifetime.start.p0(i64 8, ptr %4) #6
  %8 = load ptr, ptr %3, align 8, !tbaa !23
  %9 = getelementptr inbounds nuw %struct.CallInfo, ptr %8, i32 0, i32 3
  %10 = load ptr, ptr %9, align 8, !tbaa !32
  store ptr %10, ptr %4, align 8, !tbaa !23
  %11 = load ptr, ptr %3, align 8, !tbaa !23
  %12 = getelementptr inbounds nuw %struct.CallInfo, ptr %11, i32 0, i32 3
  store ptr null, ptr %12, align 8, !tbaa !32
  br label %13

13:                                               ; preds = %16, %1
  %14 = load ptr, ptr %4, align 8, !tbaa !23
  store ptr %14, ptr %3, align 8, !tbaa !23
  %15 = icmp ne ptr %14, null
  br i1 %15, label %16, label %26

16:                                               ; preds = %13
  %17 = load ptr, ptr %3, align 8, !tbaa !23
  %18 = getelementptr inbounds nuw %struct.CallInfo, ptr %17, i32 0, i32 3
  %19 = load ptr, ptr %18, align 8, !tbaa !32
  store ptr %19, ptr %4, align 8, !tbaa !23
  %20 = load ptr, ptr %2, align 8, !tbaa !22
  %21 = load ptr, ptr %3, align 8, !tbaa !23
  call void @luaM_free_(ptr noundef %20, ptr noundef %21, i64 noundef 64)
  %22 = load ptr, ptr %2, align 8, !tbaa !22
  %23 = getelementptr inbounds nuw %struct.lua_State, ptr %22, i32 0, i32 5
  %24 = load i16, ptr %23, align 4, !tbaa !35
  %25 = add i16 %24, -1
  store i16 %25, ptr %23, align 4, !tbaa !35
  br label %13

26:                                               ; preds = %13
  call void @llvm.lifetime.end.p0(i64 8, ptr %4) #6
  call void @llvm.lifetime.end.p0(i64 8, ptr %3) #6
  ret void
}

; Function Attrs: nounwind uwtable
define internal void @freestack(ptr noundef %0) #0 {
  %2 = alloca ptr, align 8
  store ptr %0, ptr %2, align 8, !tbaa !22
  %3 = load ptr, ptr %2, align 8, !tbaa !22
  %4 = getelementptr inbounds nuw %struct.lua_State, ptr %3, i32 0, i32 10
  %5 = load ptr, ptr %4, align 8, !tbaa !34
  %6 = icmp eq ptr %5, null
  br i1 %6, label %7, label %8

7:                                                ; preds = %1
  br label %32

8:                                                ; preds = %1
  %9 = load ptr, ptr %2, align 8, !tbaa !22
  %10 = getelementptr inbounds nuw %struct.lua_State, ptr %9, i32 0, i32 16
  %11 = load ptr, ptr %2, align 8, !tbaa !22
  %12 = getelementptr inbounds nuw %struct.lua_State, ptr %11, i32 0, i32 8
  store ptr %10, ptr %12, align 8, !tbaa !25
  %13 = load ptr, ptr %2, align 8, !tbaa !22
  call void @freeCI(ptr noundef %13)
  %14 = load ptr, ptr %2, align 8, !tbaa !22
  %15 = load ptr, ptr %2, align 8, !tbaa !22
  %16 = getelementptr inbounds nuw %struct.lua_State, ptr %15, i32 0, i32 10
  %17 = load ptr, ptr %16, align 8, !tbaa !34
  %18 = load ptr, ptr %2, align 8, !tbaa !22
  %19 = getelementptr inbounds nuw %struct.lua_State, ptr %18, i32 0, i32 9
  %20 = load ptr, ptr %19, align 8, !tbaa !34
  %21 = load ptr, ptr %2, align 8, !tbaa !22
  %22 = getelementptr inbounds nuw %struct.lua_State, ptr %21, i32 0, i32 10
  %23 = load ptr, ptr %22, align 8, !tbaa !34
  %24 = ptrtoint ptr %20 to i64
  %25 = ptrtoint ptr %23 to i64
  %26 = sub i64 %24, %25
  %27 = sdiv exact i64 %26, 16
  %28 = trunc i64 %27 to i32
  %29 = add nsw i32 %28, 5
  %30 = sext i32 %29 to i64
  %31 = mul i64 %30, 16
  call void @luaM_free_(ptr noundef %14, ptr noundef %17, i64 noundef %31)
  br label %32

32:                                               ; preds = %8, %7
  ret void
}

; Function Attrs: nounwind uwtable
define hidden void @luaE_freethread(ptr noundef %0, ptr noundef %1) #0 {
  %3 = alloca ptr, align 8
  %4 = alloca ptr, align 8
  %5 = alloca ptr, align 8
  store ptr %0, ptr %3, align 8, !tbaa !22
  store ptr %1, ptr %4, align 8, !tbaa !22
  call void @llvm.lifetime.start.p0(i64 8, ptr %5) #6
  %6 = load ptr, ptr %4, align 8, !tbaa !22
  %7 = getelementptr inbounds i8, ptr %6, i64 -8
  store ptr %7, ptr %5, align 8, !tbaa !56
  %8 = load ptr, ptr %4, align 8, !tbaa !22
  %9 = load ptr, ptr %4, align 8, !tbaa !22
  %10 = getelementptr inbounds nuw %struct.lua_State, ptr %9, i32 0, i32 10
  %11 = load ptr, ptr %10, align 8, !tbaa !34
  call void @luaF_closeupval(ptr noundef %8, ptr noundef %11)
  %12 = load ptr, ptr %4, align 8, !tbaa !22
  call void @freestack(ptr noundef %12)
  %13 = load ptr, ptr %3, align 8, !tbaa !22
  %14 = load ptr, ptr %5, align 8, !tbaa !56
  call void @luaM_free_(ptr noundef %13, ptr noundef %14, i64 noundef 216)
  call void @llvm.lifetime.end.p0(i64 8, ptr %5) #6
  ret void
}