; Function Attrs: nounwind uwtable
define hidden void @luaE_freethread(ptr noundef %0, ptr noundef %1) local_unnamed_addr #2 {
  %3 = getelementptr inbounds nuw i8, ptr %1, i64 48
  %4 = load ptr, ptr %3, align 8, !tbaa !30
  tail call void @luaF_closeupval(ptr noundef %1, ptr noundef %4) #8
  %5 = load ptr, ptr %3, align 8, !tbaa !30
  %6 = icmp eq ptr %5, null
  br i1 %6, label %freestack.exit, label %7

7:                                                ; preds = %2
  %8 = getelementptr inbounds nuw i8, ptr %1, i64 96
  %9 = getelementptr inbounds nuw i8, ptr %1, i64 32
  store ptr %8, ptr %9, align 8, !tbaa !19
  %10 = getelementptr inbounds nuw i8, ptr %1, i64 120
  %11 = load ptr, ptr %10, align 8, !tbaa !28
  store ptr null, ptr %10, align 8, !tbaa !28
  %.not8.i.i = icmp eq ptr %11, null
  br i1 %.not8.i.i, label %freeCI.exit.i, label %.lr.ph.i.i

.lr.ph.i.i:                                       ; preds = %7
  %12 = getelementptr inbounds nuw i8, ptr %1, i64 12
  br label %13

13:                                               ; preds = %13, %.lr.ph.i.i
  %.09.i.i = phi ptr [ %11, %.lr.ph.i.i ], [ %15, %13 ]
  %14 = getelementptr inbounds nuw i8, ptr %.09.i.i, i64 24
  %15 = load ptr, ptr %14, align 8, !tbaa !28
  tail call void @luaM_free_(ptr noundef nonnull %1, ptr noundef nonnull %.09.i.i, i64 noundef 64) #8
  %16 = load i16, ptr %12, align 4, !tbaa !31
  %17 = add i16 %16, -1
  store i16 %17, ptr %12, align 4, !tbaa !31
  %.not.i.i = icmp eq ptr %15, null
  br i1 %.not.i.i, label %freeCI.exit.loopexit.i, label %13

freeCI.exit.loopexit.i:                           ; preds = %13
  %.pre.i = load ptr, ptr %3, align 8, !tbaa !30
  br label %freeCI.exit.i

freeCI.exit.i:                                    ; preds = %freeCI.exit.loopexit.i, %7
  %18 = phi ptr [ %.pre.i, %freeCI.exit.loopexit.i ], [ %5, %7 ]
  %19 = getelementptr inbounds nuw i8, ptr %1, i64 40
  %20 = load ptr, ptr %19, align 8, !tbaa !30
  %21 = ptrtoint ptr %20 to i64
  %22 = ptrtoint ptr %18 to i64
  %23 = sub i64 %21, %22
  %24 = shl i64 %23, 28
  %sext.i = add i64 %24, 21474836480
  %25 = ashr exact i64 %sext.i, 28
  %26 = and i64 %25, -16
  tail call void @luaM_free_(ptr noundef nonnull %1, ptr noundef %18, i64 noundef %26) #8
  br label %freestack.exit

freestack.exit:                                   ; preds = %2, %freeCI.exit.i
  %27 = getelementptr inbounds i8, ptr %1, i64 -8
  tail call void @luaM_free_(ptr noundef %0, ptr noundef nonnull %27, i64 noundef 216) #8
  ret void
}